; Function Attrs: mustprogress uwtable
define noundef zeroext i1 @pkpy_vectorcall(ptr noundef %0, i32 noundef %1) local_unnamed_addr #4 personality ptr @__gxx_personality_v0 {
  %3 = alloca i32, align 4
  %4 = alloca %"struct.pkpy::Str", align 8
  %5 = alloca i32, align 4
  %6 = alloca ptr, align 8
  %7 = alloca ptr, align 8
  %8 = getelementptr inbounds nuw i8, ptr %0, i64 264488
  %9 = load ptr, ptr %8, align 8
  %.not = icmp eq ptr %9, null
  br i1 %.not, label %10, label %58

10:                                               ; preds = %2
  %11 = add nsw i32 %1, 2
  %12 = tail call fastcc noundef i32 @_ZL20count_extra_elementsPN4pkpy2VMEi(ptr noundef nonnull %0)
  store i32 %12, ptr %3, align 4
  %13 = icmp slt i32 %12, %11
  br i1 %13, label %14, label %21

14:                                               ; preds = %10
  store i32 %11, ptr %5, align 4
  call void @_ZN4pkpy2_SIJRA19_KciRA16_S1_RiEEENS_3StrEDpOT_(ptr dead_on_unwind nonnull writable sret(%"struct.pkpy::Str") align 8 %4, ptr noundef nonnull align 1 dereferenceable(19) @.str.2, ptr noundef nonnull align 4 dereferenceable(4) %5, ptr noundef nonnull align 1 dereferenceable(16) @.str.3, ptr noundef nonnull align 4 dereferenceable(4) %3)
  %15 = getelementptr inbounds nuw i8, ptr %4, i64 8
  %16 = load ptr, ptr %15, align 8
  %17 = invoke zeroext i1 @pkpy_error(ptr noundef nonnull %0, ptr noundef nonnull @.str.4, ptr noundef %16)
          to label %18 unwind label %19

18:                                               ; preds = %14
  call void @_ZN4pkpy3StrD1Ev(ptr noundef nonnull align 8 dereferenceable(32) %4) #32
  br label %58

19:                                               ; preds = %14
  %20 = landingpad { ptr, i32 }
          cleanup
  call void @_ZN4pkpy3StrD1Ev(ptr noundef nonnull align 8 dereferenceable(32) %4) #32
  br label %59

21:                                               ; preds = %10
  %22 = invoke noundef ptr @_ZN4pkpy2VM10vectorcallEiib(ptr noundef nonnull align 8 dereferenceable(264913) %0, i32 noundef %1, i32 noundef 0, i1 noundef zeroext false)
          to label %23 unwind label %27

23:                                               ; preds = %21
  %24 = getelementptr inbounds nuw i8, ptr %0, i64 264296
  %25 = load ptr, ptr %24, align 8
  %26 = getelementptr inbounds nuw i8, ptr %25, i64 8
  store ptr %26, ptr %24, align 8
  store ptr %22, ptr %25, align 8
  br label %58

27:                                               ; preds = %21
  %28 = landingpad { ptr, i32 }
          catch ptr @_ZTIN4pkpy9ExceptionE
          catch ptr @_ZTISt9exception
  %29 = extractvalue { ptr, i32 } %28, 0
  %30 = extractvalue { ptr, i32 } %28, 1
  %31 = tail call i32 @llvm.eh.typeid.for.p0(ptr nonnull @_ZTIN4pkpy9ExceptionE) #32
  %32 = icmp eq i32 %30, %31
  br i1 %32, label %33, label %37

33:                                               ; preds = %27
  %34 = tail call ptr @__cxa_begin_catch(ptr %29) #32
  %35 = invoke noundef ptr @_ZNK4pkpy9Exception4selfEv(ptr noundef nonnull align 8 dereferenceable(88) %34)
          to label %36 unwind label %56

36:                                               ; preds = %33
  store ptr %35, ptr %8, align 8
  tail call void @__cxa_end_catch()
  br label %58

37:                                               ; preds = %27
  %38 = tail call i32 @llvm.eh.typeid.for.p0(ptr nonnull @_ZTISt9exception) #32
  %39 = icmp eq i32 %30, %38
  br i1 %39, label %40, label %59

40:                                               ; preds = %37
  %41 = tail call ptr @__cxa_begin_catch(ptr %29) #32
  %42 = getelementptr inbounds nuw i8, ptr %0, i64 264328
  %43 = load ptr, ptr %42, align 8
  %44 = getelementptr inbounds nuw i8, ptr %43, i64 4920
  %45 = load ptr, ptr %44, align 8
  %46 = load ptr, ptr %41, align 8
  %47 = getelementptr inbounds nuw i8, ptr %46, i64 16
  %48 = load ptr, ptr %47, align 8
  %49 = tail call noundef ptr %48(ptr noundef nonnull align 8 dereferenceable(8) %41) #32
  store ptr %49, ptr %7, align 8
  %50 = invoke noundef ptr @_ZN4pkpy6py_varIPKcEEPNS_8PyObjectEPNS_2VMEOT_(ptr noundef nonnull %0, ptr noundef nonnull align 8 dereferenceable(8) %7)
          to label %51 unwind label %54

51:                                               ; preds = %40
  store ptr %50, ptr %6, align 8
  %52 = invoke noundef ptr @_ZN4pkpy2VM4callIJPNS_8PyObjectEEEES3_S3_DpOT_(ptr noundef nonnull align 8 dereferenceable(264913) %0, ptr noundef %45, ptr noundef nonnull align 8 dereferenceable(8) %6)
          to label %53 unwind label %54

53:                                               ; preds = %51
  store ptr %52, ptr %8, align 8
  call void @__cxa_end_catch()
  br label %58

54:                                               ; preds = %51, %40
  %55 = landingpad { ptr, i32 }
          cleanup
  invoke void @__cxa_end_catch()
          to label %59 unwind label %60

56:                                               ; preds = %33
  %57 = landingpad { ptr, i32 }
          cleanup
  invoke void @__cxa_end_catch()
          to label %59 unwind label %60

58:                                               ; preds = %2, %23, %53, %36, %18
  %.0 = phi i1 [ false, %18 ], [ true, %23 ], [ false, %36 ], [ false, %53 ], [ false, %2 ]
  ret i1 %.0

59:                                               ; preds = %56, %54, %37, %19
  %.merged = phi { ptr, i32 } [ %20, %19 ], [ %57, %56 ], [ %55, %54 ], [ %28, %37 ]
  resume { ptr, i32 } %.merged

60:                                               ; preds = %56, %54
  %61 = landingpad { ptr, i32 }
          catch ptr null
  %62 = extractvalue { ptr, i32 } %61, 0
  call void @__clang_call_terminate(ptr %62) #29
  unreachable
}